; ModuleID = '7/1008.c'
source_filename = "7/1008.c"
target datalayout = "e-m:e-p270:32:32-p271:32:32-p272:64:64-i64:64-f80:128-n8:16:32:64-S128"
target triple = "x86_64-pc-linux-gnu"

@.str = private unnamed_addr constant [3 x i8] c"%c\00", align 1

; Function Attrs: noinline nounwind uwtable
define dso_local i32 @main() #0 {
  %1 = alloca i32, align 4
  %2 = alloca [256 x i8], align 16
  %3 = alloca [256 x i8], align 16
  %4 = alloca [256 x i8], align 16
  %5 = alloca i32, align 4
  %6 = alloca i32, align 4
  %7 = alloca i32, align 4
  %8 = alloca i32, align 4
  %9 = alloca i32, align 4
  %10 = alloca i32, align 4
  %11 = alloca i32, align 4
  %12 = alloca i32, align 4
  %13 = alloca i32, align 4
  store i32 0, i32* %1, align 4
  %14 = getelementptr inbounds [256 x i8], [256 x i8]* %2, i64 0, i64 0
  %15 = call i32 (i8*, ...) bitcast (i32 (...)* @gets to i32 (i8*, ...)*)(i8* %14)
  %16 = getelementptr inbounds [256 x i8], [256 x i8]* %3, i64 0, i64 0
  %17 = call i32 (i8*, ...) bitcast (i32 (...)* @gets to i32 (i8*, ...)*)(i8* %16)
  %18 = getelementptr inbounds [256 x i8], [256 x i8]* %4, i64 0, i64 0
  %19 = call i32 (i8*, ...) bitcast (i32 (...)* @gets to i32 (i8*, ...)*)(i8* %18)
  store i32 0, i32* %5, align 4
  store i32 0, i32* %6, align 4
  store i32 0, i32* %7, align 4
  br label %20

20:                                               ; preds = %30, %0
  %21 = load i32, i32* %7, align 4
  %22 = sext i32 %21 to i64
  %23 = getelementptr inbounds [256 x i8], [256 x i8]* %3, i64 0, i64 %22
  %24 = load i8, i8* %23, align 1
  %25 = sext i8 %24 to i32
  %26 = icmp ne i32 %25, 0
  br i1 %26, label %27, label %33

27:                                               ; preds = %20
  %28 = load i32, i32* %5, align 4
  %29 = add nsw i32 %28, 1
  store i32 %29, i32* %5, align 4
  br label %30

30:                                               ; preds = %27
  %31 = load i32, i32* %7, align 4
  %32 = add nsw i32 %31, 1
  store i32 %32, i32* %7, align 4
  br label %20

33:                                               ; preds = %20
  store i32 0, i32* %8, align 4
  br label %34

34:                                               ; preds = %44, %33
  %35 = load i32, i32* %8, align 4
  %36 = sext i32 %35 to i64
  %37 = getelementptr inbounds [256 x i8], [256 x i8]* %2, i64 0, i64 %36
  %38 = load i8, i8* %37, align 1
  %39 = sext i8 %38 to i32
  %40 = icmp ne i32 %39, 0
  br i1 %40, label %41, label %47

41:                                               ; preds = %34
  %42 = load i32, i32* %6, align 4
  %43 = add nsw i32 %42, 1
  store i32 %43, i32* %6, align 4
  br label %44

44:                                               ; preds = %41
  %45 = load i32, i32* %8, align 4
  %46 = add nsw i32 %45, 1
  store i32 %46, i32* %8, align 4
  br label %34

47:                                               ; preds = %34
  store i32 0, i32* %9, align 4
  br label %48

48:                                               ; preds = %87, %47
  %49 = load i32, i32* %9, align 4
  %50 = sext i32 %49 to i64
  %51 = getelementptr inbounds [256 x i8], [256 x i8]* %2, i64 0, i64 %50
  %52 = load i8, i8* %51, align 1
  %53 = sext i8 %52 to i32
  %54 = icmp ne i32 %53, 0
  br i1 %54, label %55, label %90

55:                                               ; preds = %48
  store i32 0, i32* %13, align 4
  store i32 0, i32* %10, align 4
  br label %56

56:                                               ; preds = %78, %55
  %57 = load i32, i32* %10, align 4
  %58 = load i32, i32* %5, align 4
  %59 = icmp slt i32 %57, %58
  br i1 %59, label %60, label %81

60:                                               ; preds = %56
  %61 = load i32, i32* %9, align 4
  %62 = load i32, i32* %10, align 4
  %63 = add nsw i32 %61, %62
  %64 = sext i32 %63 to i64
  %65 = getelementptr inbounds [256 x i8], [256 x i8]* %2, i64 0, i64 %64
  %66 = load i8, i8* %65, align 1
  %67 = sext i8 %66 to i32
  %68 = load i32, i32* %10, align 4
  %69 = sext i32 %68 to i64
  %70 = getelementptr inbounds [256 x i8], [256 x i8]* %3, i64 0, i64 %69
  %71 = load i8, i8* %70, align 1
  %72 = sext i8 %71 to i32
  %73 = icmp eq i32 %67, %72
  br i1 %73, label %74, label %77

74:                                               ; preds = %60
  %75 = load i32, i32* %13, align 4
  %76 = add nsw i32 %75, 1
  store i32 %76, i32* %13, align 4
  br label %77

77:                                               ; preds = %74, %60
  br label %78

78:                                               ; preds = %77
  %79 = load i32, i32* %10, align 4
  %80 = add nsw i32 %79, 1
  store i32 %80, i32* %10, align 4
  br label %56

81:                                               ; preds = %56
  %82 = load i32, i32* %13, align 4
  %83 = load i32, i32* %5, align 4
  %84 = icmp eq i32 %82, %83
  br i1 %84, label %85, label %86

85:                                               ; preds = %81
  br label %90

86:                                               ; preds = %81
  br label %87

87:                                               ; preds = %86
  %88 = load i32, i32* %9, align 4
  %89 = add nsw i32 %88, 1
  store i32 %89, i32* %9, align 4
  br label %48

90:                                               ; preds = %85, %48
  %91 = load i32, i32* %9, align 4
  %92 = load i32, i32* %6, align 4
  %93 = icmp eq i32 %91, %92
  br i1 %93, label %94, label %113

94:                                               ; preds = %90
  store i32 0, i32* %12, align 4
  br label %95

95:                                               ; preds = %109, %94
  %96 = load i32, i32* %12, align 4
  %97 = sext i32 %96 to i64
  %98 = getelementptr inbounds [256 x i8], [256 x i8]* %2, i64 0, i64 %97
  %99 = load i8, i8* %98, align 1
  %100 = sext i8 %99 to i32
  %101 = icmp ne i32 %100, 0
  br i1 %101, label %102, label %112

102:                                              ; preds = %95
  %103 = load i32, i32* %12, align 4
  %104 = sext i32 %103 to i64
  %105 = getelementptr inbounds [256 x i8], [256 x i8]* %2, i64 0, i64 %104
  %106 = load i8, i8* %105, align 1
  %107 = sext i8 %106 to i32
  %108 = call i32 (i8*, ...) @printf(i8* getelementptr inbounds ([3 x i8], [3 x i8]* @.str, i64 0, i64 0), i32 %107)
  br label %109

109:                                              ; preds = %102
  %110 = load i32, i32* %12, align 4
  %111 = add nsw i32 %110, 1
  store i32 %111, i32* %12, align 4
  br label %95

112:                                              ; preds = %95
  br label %153

113:                                              ; preds = %90
  store i32 0, i32* %11, align 4
  br label %114

114:                                              ; preds = %131, %113
  %115 = load i32, i32* %11, align 4
  %116 = sext i32 %115 to i64
  %117 = getelementptr inbounds [256 x i8], [256 x i8]* %4, i64 0, i64 %116
  %118 = load i8, i8* %117, align 1
  %119 = sext i8 %118 to i32
  %120 = icmp ne i32 %119, 0
  br i1 %120, label %121, label %134

121:                                              ; preds = %114
  %122 = load i32, i32* %11, align 4
  %123 = sext i32 %122 to i64
  %124 = getelementptr inbounds [256 x i8], [256 x i8]* %4, i64 0, i64 %123
  %125 = load i8, i8* %124, align 1
  %126 = load i32, i32* %11, align 4
  %127 = load i32, i32* %9, align 4
  %128 = add nsw i32 %126, %127
  %129 = sext i32 %128 to i64
  %130 = getelementptr inbounds [256 x i8], [256 x i8]* %2, i64 0, i64 %129
  store i8 %125, i8* %130, align 1
  br label %131

131:                                              ; preds = %121
  %132 = load i32, i32* %11, align 4
  %133 = add nsw i32 %132, 1
  store i32 %133, i32* %11, align 4
  br label %114

134:                                              ; preds = %114
  store i32 0, i32* %12, align 4
  br label %135

135:                                              ; preds = %149, %134
  %136 = load i32, i32* %12, align 4
  %137 = sext i32 %136 to i64
  %138 = getelementptr inbounds [256 x i8], [256 x i8]* %2, i64 0, i64 %137
  %139 = load i8, i8* %138, align 1
  %140 = sext i8 %139 to i32
  %141 = icmp ne i32 %140, 0
  br i1 %141, label %142, label %152

142:                                              ; preds = %135
  %143 = load i32, i32* %12, align 4
  %144 = sext i32 %143 to i64
  %145 = getelementptr inbounds [256 x i8], [256 x i8]* %2, i64 0, i64 %144
  %146 = load i8, i8* %145, align 1
  %147 = sext i8 %146 to i32
  %148 = call i32 (i8*, ...) @printf(i8* getelementptr inbounds ([3 x i8], [3 x i8]* @.str, i64 0, i64 0), i32 %147)
  br label %149

149:                                              ; preds = %142
  %150 = load i32, i32* %12, align 4
  %151 = add nsw i32 %150, 1
  store i32 %151, i32* %12, align 4
  br label %135

152:                                              ; preds = %135
  br label %153

153:                                              ; preds = %152, %112
  %154 = call i32 @getchar()
  %155 = call i32 @getchar()
  %156 = call i32 @getchar()
  %157 = call i32 @getchar()
  %158 = call i32 @getchar()
  %159 = call i32 @getchar()
  %160 = call i32 @getchar()
  %161 = call i32 @getchar()
  %162 = call i32 @getchar()
  %163 = call i32 @getchar()
  %164 = call i32 @getchar()
  %165 = load i32, i32* %1, align 4
  ret i32 %165
}

declare dso_local i32 @gets(...) #1

declare dso_local i32 @printf(i8*, ...) #1

declare dso_local i32 @getchar() #1


!llvm.module.flags = !{!0}
!llvm.ident = !{!1}

!0 = !{i32 1, !"wchar_size", i32 4}
!1 = !{!"clang version 10.0.0-4ubuntu1 "}
